target datalayout = "e-m:e-p270:32:32-p271:32:32-p272:64:64-i64:64-i128:128-f80:128-n8:16:32:64-S128"
target triple = "x86_64-pc-linux-gnu"

%struct.pointf_s = type { double, double }

; Function Attrs: inlinehint nounwind uwtable
define internal i32 @dfp_cmp(double noundef %0, double noundef %1) #3 {
  %3 = alloca i32, align 4
  %4 = alloca double, align 8
  %5 = alloca double, align 8
  %6 = alloca double, align 8
  %7 = alloca i32, align 4
  store double %0, ptr %4, align 8, !tbaa !33
  store double %1, ptr %5, align 8, !tbaa !33
  call void @llvm.lifetime.start.p0(i64 8, ptr %6) #10
  %8 = load double, ptr %4, align 8, !tbaa !33
  %9 = load double, ptr %5, align 8, !tbaa !33
  %10 = fsub double %8, %9
  store double %10, ptr %6, align 8, !tbaa !33
  %11 = load double, ptr %6, align 8, !tbaa !33
  %12 = fcmp olt double %11, 0xBE7AD7F29ABCAF48
  br i1 %12, label %13, label %14

13:                                               ; preds = %2
  store i32 -1, ptr %3, align 4
  store i32 1, ptr %7, align 4
  br label %19

14:                                               ; preds = %2
  %15 = load double, ptr %6, align 8, !tbaa !33
  %16 = fcmp ogt double %15, 0x3E7AD7F29ABCAF48
  br i1 %16, label %17, label %18

17:                                               ; preds = %14
  store i32 1, ptr %3, align 4
  store i32 1, ptr %7, align 4
  br label %19

18:                                               ; preds = %14
  store i32 0, ptr %3, align 4
  store i32 1, ptr %7, align 4
  br label %19

19:                                               ; preds = %18, %17, %13
  call void @llvm.lifetime.end.p0(i64 8, ptr %6) #10
  %20 = load i32, ptr %3, align 4
  ret i32 %20
}

; Function Attrs: nounwind uwtable
define internal i32 @hcmpid(ptr noundef %0, ptr noundef %1) #0 {
  %3 = alloca i32, align 4
  %4 = alloca ptr, align 8
  %5 = alloca ptr, align 8
  %6 = alloca ptr, align 8
  %7 = alloca ptr, align 8
  %8 = alloca i32, align 4
  %9 = alloca i32, align 4
  store ptr %0, ptr %4, align 8, !tbaa !3
  store ptr %1, ptr %5, align 8, !tbaa !3
  call void @llvm.lifetime.start.p0(i64 8, ptr %6) #10
  %10 = load ptr, ptr %4, align 8, !tbaa !3
  store ptr %10, ptr %6, align 8, !tbaa !125
  call void @llvm.lifetime.start.p0(i64 8, ptr %7) #10
  %11 = load ptr, ptr %5, align 8, !tbaa !3
  store ptr %11, ptr %7, align 8, !tbaa !125
  call void @llvm.lifetime.start.p0(i64 4, ptr %8) #10
  %12 = load ptr, ptr %6, align 8, !tbaa !125
  %13 = getelementptr inbounds nuw %struct.pointf_s, ptr %12, i32 0, i32 1
  %14 = load double, ptr %13, align 8, !tbaa !92
  %15 = load ptr, ptr %7, align 8, !tbaa !125
  %16 = getelementptr inbounds nuw %struct.pointf_s, ptr %15, i32 0, i32 1
  %17 = load double, ptr %16, align 8, !tbaa !92
  %18 = call i32 @dfp_cmp(double noundef %14, double noundef %17)
  store i32 %18, ptr %8, align 4, !tbaa !26
  %19 = load i32, ptr %8, align 4, !tbaa !26
  %20 = icmp ne i32 %19, 0
  br i1 %20, label %21, label %23

21:                                               ; preds = %2
  %22 = load i32, ptr %8, align 4, !tbaa !26
  store i32 %22, ptr %3, align 4
  store i32 1, ptr %9, align 4
  br label %31

23:                                               ; preds = %2
  %24 = load ptr, ptr %6, align 8, !tbaa !125
  %25 = getelementptr inbounds nuw %struct.pointf_s, ptr %24, i32 0, i32 0
  %26 = load double, ptr %25, align 8, !tbaa !91
  %27 = load ptr, ptr %7, align 8, !tbaa !125
  %28 = getelementptr inbounds nuw %struct.pointf_s, ptr %27, i32 0, i32 0
  %29 = load double, ptr %28, align 8, !tbaa !91
  %30 = call i32 @dfp_cmp(double noundef %26, double noundef %29)
  store i32 %30, ptr %3, align 4
  store i32 1, ptr %9, align 4
  br label %31

31:                                               ; preds = %23, %21
  call void @llvm.lifetime.end.p0(i64 4, ptr %8) #10
  call void @llvm.lifetime.end.p0(i64 8, ptr %7) #10
  call void @llvm.lifetime.end.p0(i64 8, ptr %6) #10
  %32 = load i32, ptr %3, align 4
  ret i32 %32
}