; Function Attrs: mustprogress nofree norecurse nosync nounwind willreturn memory(argmem: read) uwtable
define internal range(i32 -1, 2) i32 @hcmpid(ptr noundef readonly captures(none) %0, ptr noundef readonly captures(none) %1) #12 {
  %3 = getelementptr inbounds nuw i8, ptr %0, i64 8
  %4 = load double, ptr %3, align 8, !tbaa !98
  %5 = getelementptr inbounds nuw i8, ptr %1, i64 8
  %6 = load double, ptr %5, align 8, !tbaa !98
  %7 = fsub double %4, %6
  %8 = fcmp olt double %7, 0xBE7AD7F29ABCAF48
  %9 = fcmp ogt double %7, 0x3E7AD7F29ABCAF48
  %..i = zext i1 %9 to i32
  %.0.i = select i1 %8, i32 -1, i32 %..i
  %.not = icmp eq i32 %.0.i, 0
  br i1 %.not, label %10, label %16

10:                                               ; preds = %2
  %11 = load double, ptr %0, align 8, !tbaa !100
  %12 = load double, ptr %1, align 8, !tbaa !100
  %13 = fsub double %11, %12
  %14 = fcmp olt double %13, 0xBE7AD7F29ABCAF48
  %15 = fcmp ogt double %13, 0x3E7AD7F29ABCAF48
  %..i9 = zext i1 %15 to i32
  %.0.i10 = select i1 %14, i32 -1, i32 %..i9
  br label %16

16:                                               ; preds = %2, %10
  %.0 = phi i32 [ %.0.i10, %10 ], [ %.0.i, %2 ]
  ret i32 %.0
}